target datalayout = "e-m:e-p270:32:32-p271:32:32-p272:64:64-i64:64-i128:128-f80:128-n8:16:32:64-S128"
target triple = "x86_64-pc-linux-gnu"

%"class.gmx::internal::AnalysisNeighborhoodSearchImpl" = type { i8, float, float, i8, i32, ptr, ptr, ptr, ptr, %struct.t_pbc, i8, i8, [3 x i8], %"class.std::vector", [3 x float], [3 x float], [3 x float], float, float, float, [3 x i32], %"class.std::vector.0", %"class.std::mutex", %"class.std::vector.5" }
%struct.t_pbc = type { i32, i32, i32, i32, [3 x [3 x float]], [3 x float], [3 x float], [3 x float], float, i32, [12 x [3 x i32]], [12 x [3 x float]] }
%"class.std::vector" = type { %"struct.std::_Vector_base" }
%"struct.std::_Vector_base" = type { %"struct.std::_Vector_base<gmx::BasicVector<float>, std::allocator<gmx::BasicVector<float>>>::_Vector_impl" }
%"struct.std::_Vector_base<gmx::BasicVector<float>, std::allocator<gmx::BasicVector<float>>>::_Vector_impl" = type { %"struct.std::_Vector_base<gmx::BasicVector<float>, std::allocator<gmx::BasicVector<float>>>::_Vector_impl_data" }
%"struct.std::_Vector_base<gmx::BasicVector<float>, std::allocator<gmx::BasicVector<float>>>::_Vector_impl_data" = type { ptr, ptr, ptr }
%"class.std::vector.0" = type { %"struct.std::_Vector_base.1" }
%"struct.std::_Vector_base.1" = type { %"struct.std::_Vector_base<std::vector<int>, std::allocator<std::vector<int>>>::_Vector_impl" }
%"struct.std::_Vector_base<std::vector<int>, std::allocator<std::vector<int>>>::_Vector_impl" = type { %"struct.std::_Vector_base<std::vector<int>, std::allocator<std::vector<int>>>::_Vector_impl_data" }
%"struct.std::_Vector_base<std::vector<int>, std::allocator<std::vector<int>>>::_Vector_impl_data" = type { ptr, ptr, ptr }
%"class.std::mutex" = type { %"class.std::__mutex_base" }
%"class.std::__mutex_base" = type { %union.pthread_mutex_t }
%union.pthread_mutex_t = type { %struct.__pthread_mutex_s }
%struct.__pthread_mutex_s = type { i32, i32, i32, i32, i32, i16, i16, %struct.__pthread_internal_list }
%struct.__pthread_internal_list = type { ptr, ptr }
%"class.std::vector.5" = type { %"struct.std::_Vector_base.6" }
%"struct.std::_Vector_base.6" = type { %"struct.std::_Vector_base<std::shared_ptr<gmx::internal::AnalysisNeighborhoodPairSearchImpl>, std::allocator<std::shared_ptr<gmx::internal::AnalysisNeighborhoodPairSearchImpl>>>::_Vector_impl" }
%"struct.std::_Vector_base<std::shared_ptr<gmx::internal::AnalysisNeighborhoodPairSearchImpl>, std::allocator<std::shared_ptr<gmx::internal::AnalysisNeighborhoodPairSearchImpl>>>::_Vector_impl" = type { %"struct.std::_Vector_base<std::shared_ptr<gmx::internal::AnalysisNeighborhoodPairSearchImpl>, std::allocator<std::shared_ptr<gmx::internal::AnalysisNeighborhoodPairSearchImpl>>>::_Vector_impl_data" }
%"struct.std::_Vector_base<std::shared_ptr<gmx::internal::AnalysisNeighborhoodPairSearchImpl>, std::allocator<std::shared_ptr<gmx::internal::AnalysisNeighborhoodPairSearchImpl>>>::_Vector_impl_data" = type { ptr, ptr, ptr }

; Function Attrs: inlinehint mustprogress nounwind uwtable
define internal void @_ZL9copy_rvecPKfPf(ptr noundef %0, ptr noundef %1) #4 {
  %3 = alloca ptr, align 8
  %4 = alloca ptr, align 8
  store ptr %0, ptr %3, align 8, !tbaa !55
  store ptr %1, ptr %4, align 8, !tbaa !55
  %5 = load ptr, ptr %3, align 8, !tbaa !55
  %6 = getelementptr inbounds float, ptr %5, i64 0
  %7 = load float, ptr %6, align 4, !tbaa !9
  %8 = load ptr, ptr %4, align 8, !tbaa !55
  %9 = getelementptr inbounds float, ptr %8, i64 0
  store float %7, ptr %9, align 4, !tbaa !9
  %10 = load ptr, ptr %3, align 8, !tbaa !55
  %11 = getelementptr inbounds float, ptr %10, i64 1
  %12 = load float, ptr %11, align 4, !tbaa !9
  %13 = load ptr, ptr %4, align 8, !tbaa !55
  %14 = getelementptr inbounds float, ptr %13, i64 1
  store float %12, ptr %14, align 4, !tbaa !9
  %15 = load ptr, ptr %3, align 8, !tbaa !55
  %16 = getelementptr inbounds float, ptr %15, i64 2
  %17 = load float, ptr %16, align 4, !tbaa !9
  %18 = load ptr, ptr %4, align 8, !tbaa !55
  %19 = getelementptr inbounds float, ptr %18, i64 2
  store float %17, ptr %19, align 4, !tbaa !9
  ret void
}

; Function Attrs: inlinehint mustprogress nounwind uwtable
define internal void @_ZL8rvec_decPfPKf(ptr noundef %0, ptr noundef %1) #4 {
  %3 = alloca ptr, align 8
  %4 = alloca ptr, align 8
  %5 = alloca float, align 4
  %6 = alloca float, align 4
  %7 = alloca float, align 4
  store ptr %0, ptr %3, align 8, !tbaa !55
  store ptr %1, ptr %4, align 8, !tbaa !55
  call void @llvm.lifetime.start.p0(i64 4, ptr %5) #20
  call void @llvm.lifetime.start.p0(i64 4, ptr %6) #20
  call void @llvm.lifetime.start.p0(i64 4, ptr %7) #20
  %8 = load ptr, ptr %3, align 8, !tbaa !55
  %9 = getelementptr inbounds float, ptr %8, i64 0
  %10 = load float, ptr %9, align 4, !tbaa !9
  %11 = load ptr, ptr %4, align 8, !tbaa !55
  %12 = getelementptr inbounds float, ptr %11, i64 0
  %13 = load float, ptr %12, align 4, !tbaa !9
  %14 = fsub float %10, %13
  store float %14, ptr %5, align 4, !tbaa !9
  %15 = load ptr, ptr %3, align 8, !tbaa !55
  %16 = getelementptr inbounds float, ptr %15, i64 1
  %17 = load float, ptr %16, align 4, !tbaa !9
  %18 = load ptr, ptr %4, align 8, !tbaa !55
  %19 = getelementptr inbounds float, ptr %18, i64 1
  %20 = load float, ptr %19, align 4, !tbaa !9
  %21 = fsub float %17, %20
  store float %21, ptr %6, align 4, !tbaa !9
  %22 = load ptr, ptr %3, align 8, !tbaa !55
  %23 = getelementptr inbounds float, ptr %22, i64 2
  %24 = load float, ptr %23, align 4, !tbaa !9
  %25 = load ptr, ptr %4, align 8, !tbaa !55
  %26 = getelementptr inbounds float, ptr %25, i64 2
  %27 = load float, ptr %26, align 4, !tbaa !9
  %28 = fsub float %24, %27
  store float %28, ptr %7, align 4, !tbaa !9
  %29 = load float, ptr %5, align 4, !tbaa !9
  %30 = load ptr, ptr %3, align 8, !tbaa !55
  %31 = getelementptr inbounds float, ptr %30, i64 0
  store float %29, ptr %31, align 4, !tbaa !9
  %32 = load float, ptr %6, align 4, !tbaa !9
  %33 = load ptr, ptr %3, align 8, !tbaa !55
  %34 = getelementptr inbounds float, ptr %33, i64 1
  store float %32, ptr %34, align 4, !tbaa !9
  %35 = load float, ptr %7, align 4, !tbaa !9
  %36 = load ptr, ptr %3, align 8, !tbaa !55
  %37 = getelementptr inbounds float, ptr %36, i64 2
  store float %35, ptr %37, align 4, !tbaa !9
  call void @llvm.lifetime.end.p0(i64 4, ptr %7) #20
  call void @llvm.lifetime.end.p0(i64 4, ptr %6) #20
  call void @llvm.lifetime.end.p0(i64 4, ptr %5) #20
  ret void
}

; Function Attrs: inlinehint mustprogress nounwind uwtable
define internal void @_ZL8rvec_incPfPKf(ptr noundef %0, ptr noundef %1) #4 {
  %3 = alloca ptr, align 8
  %4 = alloca ptr, align 8
  %5 = alloca float, align 4
  %6 = alloca float, align 4
  %7 = alloca float, align 4
  store ptr %0, ptr %3, align 8, !tbaa !55
  store ptr %1, ptr %4, align 8, !tbaa !55
  call void @llvm.lifetime.start.p0(i64 4, ptr %5) #20
  call void @llvm.lifetime.start.p0(i64 4, ptr %6) #20
  call void @llvm.lifetime.start.p0(i64 4, ptr %7) #20
  %8 = load ptr, ptr %3, align 8, !tbaa !55
  %9 = getelementptr inbounds float, ptr %8, i64 0
  %10 = load float, ptr %9, align 4, !tbaa !9
  %11 = load ptr, ptr %4, align 8, !tbaa !55
  %12 = getelementptr inbounds float, ptr %11, i64 0
  %13 = load float, ptr %12, align 4, !tbaa !9
  %14 = fadd float %10, %13
  store float %14, ptr %5, align 4, !tbaa !9
  %15 = load ptr, ptr %3, align 8, !tbaa !55
  %16 = getelementptr inbounds float, ptr %15, i64 1
  %17 = load float, ptr %16, align 4, !tbaa !9
  %18 = load ptr, ptr %4, align 8, !tbaa !55
  %19 = getelementptr inbounds float, ptr %18, i64 1
  %20 = load float, ptr %19, align 4, !tbaa !9
  %21 = fadd float %17, %20
  store float %21, ptr %6, align 4, !tbaa !9
  %22 = load ptr, ptr %3, align 8, !tbaa !55
  %23 = getelementptr inbounds float, ptr %22, i64 2
  %24 = load float, ptr %23, align 4, !tbaa !9
  %25 = load ptr, ptr %4, align 8, !tbaa !55
  %26 = getelementptr inbounds float, ptr %25, i64 2
  %27 = load float, ptr %26, align 4, !tbaa !9
  %28 = fadd float %24, %27
  store float %28, ptr %7, align 4, !tbaa !9
  %29 = load float, ptr %5, align 4, !tbaa !9
  %30 = load ptr, ptr %3, align 8, !tbaa !55
  %31 = getelementptr inbounds float, ptr %30, i64 0
  store float %29, ptr %31, align 4, !tbaa !9
  %32 = load float, ptr %6, align 4, !tbaa !9
  %33 = load ptr, ptr %3, align 8, !tbaa !55
  %34 = getelementptr inbounds float, ptr %33, i64 1
  store float %32, ptr %34, align 4, !tbaa !9
  %35 = load float, ptr %7, align 4, !tbaa !9
  %36 = load ptr, ptr %3, align 8, !tbaa !55
  %37 = getelementptr inbounds float, ptr %36, i64 2
  store float %35, ptr %37, align 4, !tbaa !9
  call void @llvm.lifetime.end.p0(i64 4, ptr %7) #20
  call void @llvm.lifetime.end.p0(i64 4, ptr %6) #20
  call void @llvm.lifetime.end.p0(i64 4, ptr %5) #20
  ret void
}

; Function Attrs: inlinehint mustprogress nounwind uwtable
define internal void @_ZL8rvec_subPKfS0_Pf(ptr noundef %0, ptr noundef %1, ptr noundef %2) #4 {
  %4 = alloca ptr, align 8
  %5 = alloca ptr, align 8
  %6 = alloca ptr, align 8
  %7 = alloca float, align 4
  %8 = alloca float, align 4
  %9 = alloca float, align 4
  store ptr %0, ptr %4, align 8, !tbaa !55
  store ptr %1, ptr %5, align 8, !tbaa !55
  store ptr %2, ptr %6, align 8, !tbaa !55
  call void @llvm.lifetime.start.p0(i64 4, ptr %7) #20
  call void @llvm.lifetime.start.p0(i64 4, ptr %8) #20
  call void @llvm.lifetime.start.p0(i64 4, ptr %9) #20
  %10 = load ptr, ptr %4, align 8, !tbaa !55
  %11 = getelementptr inbounds float, ptr %10, i64 0
  %12 = load float, ptr %11, align 4, !tbaa !9
  %13 = load ptr, ptr %5, align 8, !tbaa !55
  %14 = getelementptr inbounds float, ptr %13, i64 0
  %15 = load float, ptr %14, align 4, !tbaa !9
  %16 = fsub float %12, %15
  store float %16, ptr %7, align 4, !tbaa !9
  %17 = load ptr, ptr %4, align 8, !tbaa !55
  %18 = getelementptr inbounds float, ptr %17, i64 1
  %19 = load float, ptr %18, align 4, !tbaa !9
  %20 = load ptr, ptr %5, align 8, !tbaa !55
  %21 = getelementptr inbounds float, ptr %20, i64 1
  %22 = load float, ptr %21, align 4, !tbaa !9
  %23 = fsub float %19, %22
  store float %23, ptr %8, align 4, !tbaa !9
  %24 = load ptr, ptr %4, align 8, !tbaa !55
  %25 = getelementptr inbounds float, ptr %24, i64 2
  %26 = load float, ptr %25, align 4, !tbaa !9
  %27 = load ptr, ptr %5, align 8, !tbaa !55
  %28 = getelementptr inbounds float, ptr %27, i64 2
  %29 = load float, ptr %28, align 4, !tbaa !9
  %30 = fsub float %26, %29
  store float %30, ptr %9, align 4, !tbaa !9
  %31 = load float, ptr %7, align 4, !tbaa !9
  %32 = load ptr, ptr %6, align 8, !tbaa !55
  %33 = getelementptr inbounds float, ptr %32, i64 0
  store float %31, ptr %33, align 4, !tbaa !9
  %34 = load float, ptr %8, align 4, !tbaa !9
  %35 = load ptr, ptr %6, align 8, !tbaa !55
  %36 = getelementptr inbounds float, ptr %35, i64 1
  store float %34, ptr %36, align 4, !tbaa !9
  %37 = load float, ptr %9, align 4, !tbaa !9
  %38 = load ptr, ptr %6, align 8, !tbaa !55
  %39 = getelementptr inbounds float, ptr %38, i64 2
  store float %37, ptr %39, align 4, !tbaa !9
  call void @llvm.lifetime.end.p0(i64 4, ptr %9) #20
  call void @llvm.lifetime.end.p0(i64 4, ptr %8) #20
  call void @llvm.lifetime.end.p0(i64 4, ptr %7) #20
  ret void
}

; Function Attrs: mustprogress uwtable
define void @_ZNK3gmx8internal30AnalysisNeighborhoodSearchImpl18mapPointToGridCellEPKfPfS4_(ptr noundef nonnull align 8 dereferenceable(624) %0, ptr noundef %1, ptr noundef %2, ptr noundef %3) #0 align 2 {
  %5 = alloca ptr, align 8
  %6 = alloca ptr, align 8
  %7 = alloca ptr, align 8
  %8 = alloca ptr, align 8
  %9 = alloca [3 x float], align 4
  %10 = alloca i32, align 4
  %11 = alloca float, align 4
  %12 = alloca float, align 4
  store ptr %0, ptr %5, align 8, !tbaa !4
  store ptr %1, ptr %6, align 8, !tbaa !55
  store ptr %2, ptr %7, align 8, !tbaa !55
  store ptr %3, ptr %8, align 8, !tbaa !55
  %13 = load ptr, ptr %5, align 8
  call void @llvm.lifetime.start.p0(i64 12, ptr %9) #20
  %14 = load ptr, ptr %6, align 8, !tbaa !55
  %15 = getelementptr inbounds nuw %"class.gmx::internal::AnalysisNeighborhoodSearchImpl", ptr %13, i32 0, i32 14
  %16 = getelementptr inbounds [3 x float], ptr %15, i64 0, i64 0
  %17 = getelementptr inbounds [3 x float], ptr %9, i64 0, i64 0
  call void @_ZL8rvec_subPKfS0_Pf(ptr noundef %14, ptr noundef %16, ptr noundef %17)
  call void @llvm.lifetime.start.p0(i64 4, ptr %10) #20
  store i32 2, ptr %10, align 4, !tbaa !57
  br label %18

18:                                               ; preds = %83, %4
  %19 = load i32, ptr %10, align 4, !tbaa !57
  %20 = icmp sge i32 %19, 0
  br i1 %20, label %22, label %21

21:                                               ; preds = %18
  call void @llvm.lifetime.end.p0(i64 4, ptr %10) #20
  br label %86

22:                                               ; preds = %18
  call void @llvm.lifetime.start.p0(i64 4, ptr %11) #20
  %23 = load i32, ptr %10, align 4, !tbaa !57
  %24 = sext i32 %23 to i64
  %25 = getelementptr inbounds [3 x float], ptr %9, i64 0, i64 %24
  %26 = load float, ptr %25, align 4, !tbaa !9
  %27 = getelementptr inbounds nuw %"class.gmx::internal::AnalysisNeighborhoodSearchImpl", ptr %13, i32 0, i32 16
  %28 = load i32, ptr %10, align 4, !tbaa !57
  %29 = sext i32 %28 to i64
  %30 = getelementptr inbounds [3 x float], ptr %27, i64 0, i64 %29
  %31 = load float, ptr %30, align 4, !tbaa !9
  %32 = fmul float %26, %31
  store float %32, ptr %11, align 4, !tbaa !9
  %33 = getelementptr inbounds nuw %"class.gmx::internal::AnalysisNeighborhoodSearchImpl", ptr %13, i32 0, i32 12
  %34 = load i32, ptr %10, align 4, !tbaa !57
  %35 = sext i32 %34 to i64
  %36 = getelementptr inbounds [3 x i8], ptr %33, i64 0, i64 %35
  %37 = load i8, ptr %36, align 1, !tbaa !46, !range !184, !noundef !185
  %38 = trunc i8 %37 to i1
  br i1 %38, label %39, label %77

39:                                               ; preds = %22
  call void @llvm.lifetime.start.p0(i64 4, ptr %12) #20
  %40 = getelementptr inbounds nuw %"class.gmx::internal::AnalysisNeighborhoodSearchImpl", ptr %13, i32 0, i32 20
  %41 = load i32, ptr %10, align 4, !tbaa !57
  %42 = sext i32 %41 to i64
  %43 = getelementptr inbounds [3 x i32], ptr %40, i64 0, i64 %42
  %44 = load i32, ptr %43, align 4, !tbaa !57
  %45 = sitofp i32 %44 to float
  store float %45, ptr %12, align 4, !tbaa !9
  br label %46

46:                                               ; preds = %49, %39
  %47 = load float, ptr %11, align 4, !tbaa !9
  %48 = fcmp olt float %47, 0.000000e+00
  br i1 %48, label %49, label %60

49:                                               ; preds = %46
  %50 = load float, ptr %12, align 4, !tbaa !9
  %51 = load float, ptr %11, align 4, !tbaa !9
  %52 = fadd float %51, %50
  store float %52, ptr %11, align 4, !tbaa !9
  %53 = getelementptr inbounds [3 x float], ptr %9, i64 0, i64 0
  %54 = getelementptr inbounds nuw %"class.gmx::internal::AnalysisNeighborhoodSearchImpl", ptr %13, i32 0, i32 9
  %55 = getelementptr inbounds nuw %struct.t_pbc, ptr %54, i32 0, i32 4
  %56 = load i32, ptr %10, align 4, !tbaa !57
  %57 = sext i32 %56 to i64
  %58 = getelementptr inbounds [3 x [3 x float]], ptr %55, i64 0, i64 %57
  %59 = getelementptr inbounds [3 x float], ptr %58, i64 0, i64 0
  call void @_ZL8rvec_incPfPKf(ptr noundef %53, ptr noundef %59)
  br label %46, !llvm.loop !223

60:                                               ; preds = %46
  br label %61

61:                                               ; preds = %65, %60
  %62 = load float, ptr %11, align 4, !tbaa !9
  %63 = load float, ptr %12, align 4, !tbaa !9
  %64 = fcmp oge float %62, %63
  br i1 %64, label %65, label %76

65:                                               ; preds = %61
  %66 = load float, ptr %12, align 4, !tbaa !9
  %67 = load float, ptr %11, align 4, !tbaa !9
  %68 = fsub float %67, %66
  store float %68, ptr %11, align 4, !tbaa !9
  %69 = getelementptr inbounds [3 x float], ptr %9, i64 0, i64 0
  %70 = getelementptr inbounds nuw %"class.gmx::internal::AnalysisNeighborhoodSearchImpl", ptr %13, i32 0, i32 9
  %71 = getelementptr inbounds nuw %struct.t_pbc, ptr %70, i32 0, i32 4
  %72 = load i32, ptr %10, align 4, !tbaa !57
  %73 = sext i32 %72 to i64
  %74 = getelementptr inbounds [3 x [3 x float]], ptr %71, i64 0, i64 %73
  %75 = getelementptr inbounds [3 x float], ptr %74, i64 0, i64 0
  call void @_ZL8rvec_decPfPKf(ptr noundef %69, ptr noundef %75)
  br label %61, !llvm.loop !224

76:                                               ; preds = %61
  call void @llvm.lifetime.end.p0(i64 4, ptr %12) #20
  br label %77

77:                                               ; preds = %76, %22
  %78 = load float, ptr %11, align 4, !tbaa !9
  %79 = load ptr, ptr %7, align 8, !tbaa !55
  %80 = load i32, ptr %10, align 4, !tbaa !57
  %81 = sext i32 %80 to i64
  %82 = getelementptr inbounds float, ptr %79, i64 %81
  store float %78, ptr %82, align 4, !tbaa !9
  call void @llvm.lifetime.end.p0(i64 4, ptr %11) #20
  br label %83

83:                                               ; preds = %77
  %84 = load i32, ptr %10, align 4, !tbaa !57
  %85 = add nsw i32 %84, -1
  store i32 %85, ptr %10, align 4, !tbaa !57
  br label %18, !llvm.loop !225

86:                                               ; preds = %21
  %87 = getelementptr inbounds [3 x float], ptr %9, i64 0, i64 0
  %88 = load ptr, ptr %8, align 8, !tbaa !55
  call void @_ZL9copy_rvecPKfPf(ptr noundef %87, ptr noundef %88)
  call void @llvm.lifetime.end.p0(i64 12, ptr %9) #20
  ret void
}