; Function Attrs: mustprogress nofree norecurse nosync nounwind memory(argmem: readwrite) uwtable
define void @_ZNK3gmx8internal30AnalysisNeighborhoodSearchImpl18mapPointToGridCellEPKfPfS4_(ptr noundef nonnull readonly align 8 captures(none) dereferenceable(624) %0, ptr noundef readonly captures(none) %1, ptr noundef writeonly captures(none) %2, ptr noundef writeonly captures(none) %3) local_unnamed_addr #19 align 2 {
  %5 = alloca [3 x float], align 4
  call void @llvm.lifetime.start.p0(i64 12, ptr nonnull %5) #36
  %6 = getelementptr inbounds nuw i8, ptr %0, i64 472
  %7 = load float, ptr %1, align 4, !tbaa !77
  %8 = load float, ptr %6, align 8, !tbaa !77
  %9 = fsub float %7, %8
  %10 = getelementptr inbounds nuw i8, ptr %1, i64 4
  %11 = load float, ptr %10, align 4, !tbaa !77
  %12 = getelementptr inbounds nuw i8, ptr %0, i64 476
  %13 = load float, ptr %12, align 4, !tbaa !77
  %14 = fsub float %11, %13
  %15 = getelementptr inbounds nuw i8, ptr %1, i64 8
  %16 = load float, ptr %15, align 4, !tbaa !77
  %17 = getelementptr inbounds nuw i8, ptr %0, i64 480
  %18 = load float, ptr %17, align 8, !tbaa !77
  %19 = fsub float %16, %18
  store float %9, ptr %5, align 4, !tbaa !77
  %20 = getelementptr inbounds nuw i8, ptr %5, i64 4
  store float %14, ptr %20, align 4, !tbaa !77
  %21 = getelementptr inbounds nuw i8, ptr %5, i64 8
  store float %19, ptr %21, align 4, !tbaa !77
  %22 = getelementptr inbounds nuw i8, ptr %0, i64 496
  %23 = getelementptr inbounds nuw i8, ptr %0, i64 442
  %24 = getelementptr inbounds nuw i8, ptr %0, i64 520
  %25 = getelementptr inbounds nuw i8, ptr %0, i64 72
  br label %29

26:                                               ; preds = %74
  store float %77, ptr %3, align 4, !tbaa !77
  %27 = getelementptr inbounds nuw i8, ptr %3, i64 4
  store float %76, ptr %27, align 4, !tbaa !77
  %28 = getelementptr inbounds nuw i8, ptr %3, i64 8
  store float %75, ptr %28, align 4, !tbaa !77
  call void @llvm.lifetime.end.p0(i64 12, ptr nonnull %5) #36
  ret void

29:                                               ; preds = %4, %74
  %indvars.iv = phi i64 [ 2, %4 ], [ %indvars.iv.next, %74 ]
  %.lcssa314452 = phi float [ %9, %4 ], [ %77, %74 ]
  %.lcssa334651 = phi float [ %14, %4 ], [ %76, %74 ]
  %.lcssa354950 = phi float [ %19, %4 ], [ %75, %74 ]
  %30 = getelementptr inbounds nuw [3 x float], ptr %5, i64 0, i64 %indvars.iv
  %31 = load float, ptr %30, align 4, !tbaa !77
  %32 = getelementptr inbounds nuw [3 x float], ptr %22, i64 0, i64 %indvars.iv
  %33 = load float, ptr %32, align 4, !tbaa !77
  %34 = fmul float %31, %33
  %35 = getelementptr inbounds nuw [3 x i8], ptr %23, i64 0, i64 %indvars.iv
  %36 = load i8, ptr %35, align 1, !tbaa !38, !range !88, !noundef !89
  %37 = trunc nuw i8 %36 to i1
  br i1 %37, label %38, label %74

38:                                               ; preds = %29
  %39 = getelementptr inbounds nuw [3 x i32], ptr %24, i64 0, i64 %indvars.iv
  %40 = load i32, ptr %39, align 4, !tbaa !39
  %41 = sitofp i32 %40 to float
  %42 = fcmp olt float %34, 0.000000e+00
  br i1 %42, label %.lr.ph, label %.preheader

.lr.ph:                                           ; preds = %38
  %43 = getelementptr inbounds nuw [3 x [3 x float]], ptr %25, i64 0, i64 %indvars.iv
  %44 = load float, ptr %43, align 4, !tbaa !77
  %45 = getelementptr inbounds nuw i8, ptr %43, i64 4
  %46 = load float, ptr %45, align 4, !tbaa !77
  %47 = getelementptr inbounds nuw i8, ptr %43, i64 8
  %48 = load float, ptr %47, align 4, !tbaa !77
  br label %56

.preheader:                                       ; preds = %56, %38
  %.lcssa25 = phi float [ %.lcssa354950, %38 ], [ %63, %56 ]
  %.lcssa23 = phi float [ %.lcssa334651, %38 ], [ %62, %56 ]
  %.lcssa = phi float [ %.lcssa314452, %38 ], [ %61, %56 ]
  %.1.lcssa = phi float [ %34, %38 ], [ %60, %56 ]
  %49 = fcmp ult float %.1.lcssa, %41
  br i1 %49, label %.loopexit, label %.lr.ph37

.lr.ph37:                                         ; preds = %.preheader
  %50 = getelementptr inbounds nuw [3 x [3 x float]], ptr %25, i64 0, i64 %indvars.iv
  %51 = load float, ptr %50, align 4, !tbaa !77
  %52 = getelementptr inbounds nuw i8, ptr %50, i64 4
  %53 = load float, ptr %52, align 4, !tbaa !77
  %54 = getelementptr inbounds nuw i8, ptr %50, i64 8
  %55 = load float, ptr %54, align 4, !tbaa !77
  br label %65

56:                                               ; preds = %.lr.ph, %56
  %.126 = phi float [ %34, %.lr.ph ], [ %60, %56 ]
  %57 = phi float [ %.lcssa314452, %.lr.ph ], [ %61, %56 ]
  %58 = phi float [ %.lcssa334651, %.lr.ph ], [ %62, %56 ]
  %59 = phi float [ %.lcssa354950, %.lr.ph ], [ %63, %56 ]
  %60 = fadd float %.126, %41
  %61 = fadd float %57, %44
  %62 = fadd float %58, %46
  %63 = fadd float %59, %48
  %64 = fcmp olt float %60, 0.000000e+00
  br i1 %64, label %56, label %.preheader, !llvm.loop !91

65:                                               ; preds = %.lr.ph37, %65
  %.236 = phi float [ %.1.lcssa, %.lr.ph37 ], [ %69, %65 ]
  %66 = phi float [ %.lcssa, %.lr.ph37 ], [ %70, %65 ]
  %67 = phi float [ %.lcssa23, %.lr.ph37 ], [ %71, %65 ]
  %68 = phi float [ %.lcssa25, %.lr.ph37 ], [ %72, %65 ]
  %69 = fsub float %.236, %41
  %70 = fsub float %66, %51
  %71 = fsub float %67, %53
  %72 = fsub float %68, %55
  %73 = fcmp ult float %69, %41
  br i1 %73, label %.loopexit, label %65, !llvm.loop !92

.loopexit:                                        ; preds = %65, %.preheader
  %.lcssa35 = phi float [ %.lcssa25, %.preheader ], [ %72, %65 ]
  %.lcssa33 = phi float [ %.lcssa23, %.preheader ], [ %71, %65 ]
  %.lcssa31 = phi float [ %.lcssa, %.preheader ], [ %70, %65 ]
  %.2.lcssa = phi float [ %.1.lcssa, %.preheader ], [ %69, %65 ]
  store float %.lcssa31, ptr %5, align 4
  store float %.lcssa33, ptr %20, align 4
  store float %.lcssa35, ptr %21, align 4
  br label %74

74:                                               ; preds = %.loopexit, %29
  %75 = phi float [ %.lcssa354950, %29 ], [ %.lcssa35, %.loopexit ]
  %76 = phi float [ %.lcssa334651, %29 ], [ %.lcssa33, %.loopexit ]
  %77 = phi float [ %.lcssa314452, %29 ], [ %.lcssa31, %.loopexit ]
  %.020 = phi float [ %34, %29 ], [ %.2.lcssa, %.loopexit ]
  %78 = getelementptr inbounds nuw float, ptr %2, i64 %indvars.iv
  store float %.020, ptr %78, align 4, !tbaa !77
  %indvars.iv.next = add nsw i64 %indvars.iv, -1
  %.not = icmp eq i64 %indvars.iv, 0
  br i1 %.not, label %26, label %29, !llvm.loop !93
}